target datalayout = "e-m:e-p270:32:32-p271:32:32-p272:64:64-i64:64-i128:128-f80:128-n8:16:32:64-S128"
target triple = "x86_64-pc-linux-gnu"

%struct.GIST_SPLITVEC = type { ptr, i32, i64, i8, ptr, i32, i64, i8 }
%struct.GistSplitVector = type { %struct.GIST_SPLITVEC, [32 x i64], [32 x i8], [32 x i64], [32 x i8], ptr }
%struct.GistSplitUnion = type { ptr, i32, ptr, ptr, ptr }

; Function Attrs: nounwind uwtable
define internal void @gistunionsubkeyvec(ptr noundef %0, ptr noundef %1, ptr noundef %2) #0 {
  %4 = alloca ptr, align 8
  %5 = alloca ptr, align 8
  %6 = alloca ptr, align 8
  %7 = alloca ptr, align 8
  %8 = alloca i32, align 4
  %9 = alloca i32, align 4
  store ptr %0, ptr %4, align 8
  store ptr %1, ptr %5, align 8
  store ptr %2, ptr %6, align 8
  call void @llvm.lifetime.start.p0(i64 8, ptr %7) #6
  call void @llvm.lifetime.start.p0(i64 4, ptr %8) #6
  call void @llvm.lifetime.start.p0(i64 4, ptr %9) #6
  store i32 0, ptr %9, align 4
  %10 = load ptr, ptr %6, align 8
  %11 = getelementptr inbounds nuw %struct.GistSplitUnion, ptr %10, i32 0, i32 1
  %12 = load i32, ptr %11, align 8
  %13 = sext i32 %12 to i64
  %14 = mul i64 8, %13
  %15 = call ptr @palloc(i64 noundef %14)
  store ptr %15, ptr %7, align 8
  store i32 0, ptr %8, align 4
  br label %16

16:                                               ; preds = %62, %3
  %17 = load i32, ptr %8, align 4
  %18 = load ptr, ptr %6, align 8
  %19 = getelementptr inbounds nuw %struct.GistSplitUnion, ptr %18, i32 0, i32 1
  %20 = load i32, ptr %19, align 8
  %21 = icmp slt i32 %17, %20
  br i1 %21, label %22, label %65

22:                                               ; preds = %16
  %23 = load ptr, ptr %6, align 8
  %24 = getelementptr inbounds nuw %struct.GistSplitUnion, ptr %23, i32 0, i32 4
  %25 = load ptr, ptr %24, align 8
  %26 = icmp ne ptr %25, null
  br i1 %26, label %27, label %43

27:                                               ; preds = %22
  %28 = load ptr, ptr %6, align 8
  %29 = getelementptr inbounds nuw %struct.GistSplitUnion, ptr %28, i32 0, i32 4
  %30 = load ptr, ptr %29, align 8
  %31 = load ptr, ptr %6, align 8
  %32 = getelementptr inbounds nuw %struct.GistSplitUnion, ptr %31, i32 0, i32 0
  %33 = load ptr, ptr %32, align 8
  %34 = load i32, ptr %8, align 4
  %35 = sext i32 %34 to i64
  %36 = getelementptr inbounds i16, ptr %33, i64 %35
  %37 = load i16, ptr %36, align 2
  %38 = zext i16 %37 to i64
  %39 = getelementptr inbounds nuw i8, ptr %30, i64 %38
  %40 = load i8, ptr %39, align 1, !range !4, !noundef !5
  %41 = trunc i8 %40 to i1
  br i1 %41, label %42, label %43

42:                                               ; preds = %27
  br label %62

43:                                               ; preds = %27, %22
  %44 = load ptr, ptr %5, align 8
  %45 = load ptr, ptr %6, align 8
  %46 = getelementptr inbounds nuw %struct.GistSplitUnion, ptr %45, i32 0, i32 0
  %47 = load ptr, ptr %46, align 8
  %48 = load i32, ptr %8, align 4
  %49 = sext i32 %48 to i64
  %50 = getelementptr inbounds i16, ptr %47, i64 %49
  %51 = load i16, ptr %50, align 2
  %52 = zext i16 %51 to i32
  %53 = sub i32 %52, 1
  %54 = sext i32 %53 to i64
  %55 = getelementptr inbounds ptr, ptr %44, i64 %54
  %56 = load ptr, ptr %55, align 8
  %57 = load ptr, ptr %7, align 8
  %58 = load i32, ptr %9, align 4
  %59 = add i32 %58, 1
  store i32 %59, ptr %9, align 4
  %60 = sext i32 %58 to i64
  %61 = getelementptr inbounds ptr, ptr %57, i64 %60
  store ptr %56, ptr %61, align 8
  br label %62

62:                                               ; preds = %43, %42
  %63 = load i32, ptr %8, align 4
  %64 = add i32 %63, 1
  store i32 %64, ptr %8, align 4
  br label %16, !llvm.loop !14

65:                                               ; preds = %16
  %66 = load ptr, ptr %4, align 8
  %67 = load ptr, ptr %7, align 8
  %68 = load i32, ptr %9, align 4
  %69 = load ptr, ptr %6, align 8
  %70 = getelementptr inbounds nuw %struct.GistSplitUnion, ptr %69, i32 0, i32 2
  %71 = load ptr, ptr %70, align 8
  %72 = load ptr, ptr %6, align 8
  %73 = getelementptr inbounds nuw %struct.GistSplitUnion, ptr %72, i32 0, i32 3
  %74 = load ptr, ptr %73, align 8
  call void @gistMakeUnionItVec(ptr noundef %66, ptr noundef %67, i32 noundef %68, ptr noundef %71, ptr noundef %74)
  %75 = load ptr, ptr %7, align 8
  call void @pfree(ptr noundef %75)
  call void @llvm.lifetime.end.p0(i64 4, ptr %9) #6
  call void @llvm.lifetime.end.p0(i64 4, ptr %8) #6
  call void @llvm.lifetime.end.p0(i64 8, ptr %7) #6
  ret void
}

; Function Attrs: nounwind uwtable
define internal void @gistunionsubkey(ptr noundef %0, ptr noundef %1, ptr noundef %2) #0 {
  %4 = alloca ptr, align 8
  %5 = alloca ptr, align 8
  %6 = alloca ptr, align 8
  %7 = alloca %struct.GistSplitUnion, align 8
  store ptr %0, ptr %4, align 8
  store ptr %1, ptr %5, align 8
  store ptr %2, ptr %6, align 8
  call void @llvm.lifetime.start.p0(i64 40, ptr %7) #6
  %8 = load ptr, ptr %6, align 8
  %9 = getelementptr inbounds nuw %struct.GistSplitVector, ptr %8, i32 0, i32 5
  %10 = load ptr, ptr %9, align 8
  %11 = getelementptr inbounds nuw %struct.GistSplitUnion, ptr %7, i32 0, i32 4
  store ptr %10, ptr %11, align 8
  %12 = load ptr, ptr %6, align 8
  %13 = getelementptr inbounds nuw %struct.GistSplitVector, ptr %12, i32 0, i32 0
  %14 = getelementptr inbounds nuw %struct.GIST_SPLITVEC, ptr %13, i32 0, i32 0
  %15 = load ptr, ptr %14, align 8
  %16 = getelementptr inbounds nuw %struct.GistSplitUnion, ptr %7, i32 0, i32 0
  store ptr %15, ptr %16, align 8
  %17 = load ptr, ptr %6, align 8
  %18 = getelementptr inbounds nuw %struct.GistSplitVector, ptr %17, i32 0, i32 0
  %19 = getelementptr inbounds nuw %struct.GIST_SPLITVEC, ptr %18, i32 0, i32 1
  %20 = load i32, ptr %19, align 8
  %21 = getelementptr inbounds nuw %struct.GistSplitUnion, ptr %7, i32 0, i32 1
  store i32 %20, ptr %21, align 8
  %22 = load ptr, ptr %6, align 8
  %23 = getelementptr inbounds nuw %struct.GistSplitVector, ptr %22, i32 0, i32 1
  %24 = getelementptr inbounds [32 x i64], ptr %23, i64 0, i64 0
  %25 = getelementptr inbounds nuw %struct.GistSplitUnion, ptr %7, i32 0, i32 2
  store ptr %24, ptr %25, align 8
  %26 = load ptr, ptr %6, align 8
  %27 = getelementptr inbounds nuw %struct.GistSplitVector, ptr %26, i32 0, i32 2
  %28 = getelementptr inbounds [32 x i8], ptr %27, i64 0, i64 0
  %29 = getelementptr inbounds nuw %struct.GistSplitUnion, ptr %7, i32 0, i32 3
  store ptr %28, ptr %29, align 8
  %30 = load ptr, ptr %4, align 8
  %31 = load ptr, ptr %5, align 8
  call void @gistunionsubkeyvec(ptr noundef %30, ptr noundef %31, ptr noundef %7)
  %32 = load ptr, ptr %6, align 8
  %33 = getelementptr inbounds nuw %struct.GistSplitVector, ptr %32, i32 0, i32 0
  %34 = getelementptr inbounds nuw %struct.GIST_SPLITVEC, ptr %33, i32 0, i32 4
  %35 = load ptr, ptr %34, align 8
  %36 = getelementptr inbounds nuw %struct.GistSplitUnion, ptr %7, i32 0, i32 0
  store ptr %35, ptr %36, align 8
  %37 = load ptr, ptr %6, align 8
  %38 = getelementptr inbounds nuw %struct.GistSplitVector, ptr %37, i32 0, i32 0
  %39 = getelementptr inbounds nuw %struct.GIST_SPLITVEC, ptr %38, i32 0, i32 5
  %40 = load i32, ptr %39, align 8
  %41 = getelementptr inbounds nuw %struct.GistSplitUnion, ptr %7, i32 0, i32 1
  store i32 %40, ptr %41, align 8
  %42 = load ptr, ptr %6, align 8
  %43 = getelementptr inbounds nuw %struct.GistSplitVector, ptr %42, i32 0, i32 3
  %44 = getelementptr inbounds [32 x i64], ptr %43, i64 0, i64 0
  %45 = getelementptr inbounds nuw %struct.GistSplitUnion, ptr %7, i32 0, i32 2
  store ptr %44, ptr %45, align 8
  %46 = load ptr, ptr %6, align 8
  %47 = getelementptr inbounds nuw %struct.GistSplitVector, ptr %46, i32 0, i32 4
  %48 = getelementptr inbounds [32 x i8], ptr %47, i64 0, i64 0
  %49 = getelementptr inbounds nuw %struct.GistSplitUnion, ptr %7, i32 0, i32 3
  store ptr %48, ptr %49, align 8
  %50 = load ptr, ptr %4, align 8
  %51 = load ptr, ptr %5, align 8
  call void @gistunionsubkeyvec(ptr noundef %50, ptr noundef %51, ptr noundef %7)
  call void @llvm.lifetime.end.p0(i64 40, ptr %7) #6
  ret void
}