; Function Attrs: nounwind uwtable
define internal fastcc void @gistunionsubkey(ptr noundef %0, ptr noundef readonly captures(none) %1, ptr noundef %2) unnamed_addr #0 {
  %4 = getelementptr inbounds nuw i8, ptr %2, i64 640
  %5 = load ptr, ptr %4, align 8
  %6 = load ptr, ptr %2, align 8
  %7 = getelementptr inbounds nuw i8, ptr %2, i64 8
  %8 = load i32, ptr %7, align 8
  %9 = getelementptr inbounds nuw i8, ptr %2, i64 64
  %10 = getelementptr inbounds nuw i8, ptr %2, i64 320
  %11 = sext i32 %8 to i64
  %12 = shl nsw i64 %11, 3
  %13 = tail call ptr @palloc(i64 noundef %12) #7
  %invariant.gep.i = getelementptr i8, ptr %1, i64 -8
  %14 = icmp sgt i32 %8, 0
  br i1 %14, label %.lr.ph.i.preheader, label %gistunionsubkeyvec.exit

.lr.ph.i.preheader:                               ; preds = %3
  %.not.i = icmp eq ptr %5, null
  %15 = zext nneg i32 %8 to i64
  br i1 %.not.i, label %.lr.ph.i.us, label %.lr.ph.i

.lr.ph.i.us:                                      ; preds = %.lr.ph.i.preheader, %.lr.ph.i.us
  %indvars.iv.i.us = phi i64 [ %indvars.iv.next.i.us, %.lr.ph.i.us ], [ 0, %.lr.ph.i.preheader ]
  %.phi.trans.insert.i.us = getelementptr inbounds nuw i16, ptr %6, i64 %indvars.iv.i.us
  %.pre24.i.us = load i16, ptr %.phi.trans.insert.i.us, align 2
  %.pre26.i.us = zext i16 %.pre24.i.us to i64
  %gep.i.us = getelementptr ptr, ptr %invariant.gep.i, i64 %.pre26.i.us
  %16 = load ptr, ptr %gep.i.us, align 8
  %indvars.iv.next.i.us = add nuw nsw i64 %indvars.iv.i.us, 1
  %sext = shl i64 %indvars.iv.i.us, 32
  %17 = ashr exact i64 %sext, 29
  %18 = getelementptr inbounds i8, ptr %13, i64 %17
  store ptr %16, ptr %18, align 8
  %exitcond45.not = icmp eq i64 %indvars.iv.next.i.us, %15
  br i1 %exitcond45.not, label %gistunionsubkeyvec.exit, label %.lr.ph.i.us, !llvm.loop !13

.lr.ph.i:                                         ; preds = %.lr.ph.i.preheader, %26
  %indvars.iv.i = phi i64 [ %indvars.iv.next.i, %26 ], [ 0, %.lr.ph.i.preheader ]
  %.021.i = phi i32 [ %.1.i, %26 ], [ 0, %.lr.ph.i.preheader ]
  %.phi.trans.insert.i = getelementptr inbounds nuw i16, ptr %6, i64 %indvars.iv.i
  %.pre24.i = load i16, ptr %.phi.trans.insert.i, align 2
  %.pre26.i = zext i16 %.pre24.i to i64
  %19 = getelementptr inbounds nuw i8, ptr %5, i64 %.pre26.i
  %20 = load i8, ptr %19, align 1, !range !4, !noundef !5
  %21 = trunc nuw i8 %20 to i1
  br i1 %21, label %26, label %._crit_edge23.i

._crit_edge23.i:                                  ; preds = %.lr.ph.i
  %gep.i = getelementptr ptr, ptr %invariant.gep.i, i64 %.pre26.i
  %22 = load ptr, ptr %gep.i, align 8
  %23 = add i32 %.021.i, 1
  %24 = sext i32 %.021.i to i64
  %25 = getelementptr inbounds ptr, ptr %13, i64 %24
  store ptr %22, ptr %25, align 8
  br label %26

26:                                               ; preds = %._crit_edge23.i, %.lr.ph.i
  %.1.i = phi i32 [ %.021.i, %.lr.ph.i ], [ %23, %._crit_edge23.i ]
  %indvars.iv.next.i = add nuw nsw i64 %indvars.iv.i, 1
  %exitcond.not = icmp eq i64 %indvars.iv.next.i, %15
  br i1 %exitcond.not, label %gistunionsubkeyvec.exit, label %.lr.ph.i, !llvm.loop !13

gistunionsubkeyvec.exit:                          ; preds = %26, %.lr.ph.i.us, %3
  %.0.lcssa.i = phi i32 [ 0, %3 ], [ %8, %.lr.ph.i.us ], [ %.1.i, %26 ]
  tail call void @gistMakeUnionItVec(ptr noundef %0, ptr noundef %13, i32 noundef %.0.lcssa.i, ptr noundef nonnull %9, ptr noundef nonnull %10) #7
  tail call void @pfree(ptr noundef %13) #7
  %27 = getelementptr inbounds nuw i8, ptr %2, i64 32
  %28 = load ptr, ptr %27, align 8
  %29 = getelementptr inbounds nuw i8, ptr %2, i64 40
  %30 = load i32, ptr %29, align 8
  %31 = sext i32 %30 to i64
  %32 = shl nsw i64 %31, 3
  %33 = tail call ptr @palloc(i64 noundef %32) #7
  %34 = icmp sgt i32 %30, 0
  br i1 %34, label %.lr.ph.i15.preheader, label %gistunionsubkeyvec.exit28

.lr.ph.i15.preheader:                             ; preds = %gistunionsubkeyvec.exit
  %.not.i18 = icmp eq ptr %5, null
  %35 = zext nneg i32 %30 to i64
  br i1 %.not.i18, label %.lr.ph.i15.us, label %.lr.ph.i15

.lr.ph.i15.us:                                    ; preds = %.lr.ph.i15.preheader, %.lr.ph.i15.us
  %indvars.iv.i16.us = phi i64 [ %indvars.iv.next.i27.us, %.lr.ph.i15.us ], [ 0, %.lr.ph.i15.preheader ]
  %.phi.trans.insert.i20.us = getelementptr inbounds nuw i16, ptr %28, i64 %indvars.iv.i16.us
  %.pre24.i21.us = load i16, ptr %.phi.trans.insert.i20.us, align 2
  %.pre26.i22.us = zext i16 %.pre24.i21.us to i64
  %gep.i24.us = getelementptr ptr, ptr %invariant.gep.i, i64 %.pre26.i22.us
  %36 = load ptr, ptr %gep.i24.us, align 8
  %indvars.iv.next.i27.us = add nuw nsw i64 %indvars.iv.i16.us, 1
  %sext49 = shl i64 %indvars.iv.i16.us, 32
  %37 = ashr exact i64 %sext49, 29
  %38 = getelementptr inbounds i8, ptr %33, i64 %37
  store ptr %36, ptr %38, align 8
  %exitcond48.not = icmp eq i64 %indvars.iv.next.i27.us, %35
  br i1 %exitcond48.not, label %gistunionsubkeyvec.exit28, label %.lr.ph.i15.us, !llvm.loop !13

.lr.ph.i15:                                       ; preds = %.lr.ph.i15.preheader, %46
  %indvars.iv.i16 = phi i64 [ %indvars.iv.next.i27, %46 ], [ 0, %.lr.ph.i15.preheader ]
  %.021.i17 = phi i32 [ %.1.i26, %46 ], [ 0, %.lr.ph.i15.preheader ]
  %.phi.trans.insert.i20 = getelementptr inbounds nuw i16, ptr %28, i64 %indvars.iv.i16
  %.pre24.i21 = load i16, ptr %.phi.trans.insert.i20, align 2
  %.pre26.i22 = zext i16 %.pre24.i21 to i64
  %39 = getelementptr inbounds nuw i8, ptr %5, i64 %.pre26.i22
  %40 = load i8, ptr %39, align 1, !range !4, !noundef !5
  %41 = trunc nuw i8 %40 to i1
  br i1 %41, label %46, label %._crit_edge23.i23

._crit_edge23.i23:                                ; preds = %.lr.ph.i15
  %gep.i24 = getelementptr ptr, ptr %invariant.gep.i, i64 %.pre26.i22
  %42 = load ptr, ptr %gep.i24, align 8
  %43 = add i32 %.021.i17, 1
  %44 = sext i32 %.021.i17 to i64
  %45 = getelementptr inbounds ptr, ptr %33, i64 %44
  store ptr %42, ptr %45, align 8
  br label %46

46:                                               ; preds = %._crit_edge23.i23, %.lr.ph.i15
  %.1.i26 = phi i32 [ %.021.i17, %.lr.ph.i15 ], [ %43, %._crit_edge23.i23 ]
  %indvars.iv.next.i27 = add nuw nsw i64 %indvars.iv.i16, 1
  %exitcond46.not = icmp eq i64 %indvars.iv.next.i27, %35
  br i1 %exitcond46.not, label %gistunionsubkeyvec.exit28, label %.lr.ph.i15, !llvm.loop !13

gistunionsubkeyvec.exit28:                        ; preds = %46, %.lr.ph.i15.us, %gistunionsubkeyvec.exit
  %.0.lcssa.i14 = phi i32 [ 0, %gistunionsubkeyvec.exit ], [ %30, %.lr.ph.i15.us ], [ %.1.i26, %46 ]
  %47 = getelementptr inbounds nuw i8, ptr %2, i64 608
  %48 = getelementptr inbounds nuw i8, ptr %2, i64 352
  tail call void @gistMakeUnionItVec(ptr noundef %0, ptr noundef %33, i32 noundef %.0.lcssa.i14, ptr noundef nonnull %48, ptr noundef nonnull %47) #7
  tail call void @pfree(ptr noundef %33) #7
  ret void
}